; Function Attrs: null_pointer_is_valid sspstrong uwtable
define void @ws_logv(ptr noundef %0, i32 noundef %1, ptr noundef %2, ptr noundef %3) local_unnamed_addr #1 {
  %5 = alloca %struct.timespec, align 8
  %6 = alloca %struct.ws_log_manifest_t, align 8
  call void @llvm.lifetime.start.p0(i64 72, ptr nonnull %6) #23
  %7 = tail call zeroext i1 @ws_log_msg_is_active(ptr noundef %0, i32 noundef %1)
  br i1 %7, label %8, label %msg_is_active.exit

8:                                                ; preds = %4
  call void @llvm.lifetime.start.p0(i64 16, ptr nonnull %5) #23
  %9 = call i32 @clock_gettime(i32 noundef 0, ptr noundef nonnull %5) #23
  %10 = icmp eq i32 %9, 0
  br i1 %10, label %14, label %11

11:                                               ; preds = %8
  %12 = call i64 @time(ptr noundef null) #23
  store i64 %12, ptr %5, align 8
  %13 = getelementptr inbounds nuw i8, ptr %5, i64 8
  store i64 -1, ptr %13, align 8
  br label %14

14:                                               ; preds = %8, %11
  %15 = call ptr @ws_localtime_r(ptr noundef nonnull %5, ptr noundef nonnull %6)
  %16 = getelementptr inbounds nuw i8, ptr %5, i64 8
  %17 = load i64, ptr %16, align 8
  %18 = getelementptr inbounds nuw i8, ptr %6, i64 56
  store i64 %17, ptr %18, align 8
  %19 = call i32 @getpid() #23
  %20 = sext i32 %19 to i64
  %21 = getelementptr inbounds nuw i8, ptr %6, i64 64
  store i64 %20, ptr %21, align 8
  call void @llvm.lifetime.end.p0(i64 16, ptr nonnull %5) #23
  call fastcc void @log_write_dispatch(ptr noundef %0, i32 noundef %1, ptr noundef null, i64 noundef -1, ptr noundef null, ptr noundef nonnull %6, ptr noundef %2, ptr noundef %3)
  br label %msg_is_active.exit

msg_is_active.exit:                               ; preds = %4, %14
  call void @llvm.lifetime.end.p0(i64 72, ptr nonnull %6) #23
  ret void
}